; Function Attrs: nounwind uwtable
define hidden ptr @lexbor_mem_calloc(ptr nocapture noundef %0, i64 noundef %1) local_unnamed_addr #0 {
  %3 = tail call ptr @lexbor_mem_alloc(ptr noundef %0, i64 noundef %1)
  %.not = icmp eq ptr %3, null
  br i1 %.not, label %5, label %4

4:                                                ; preds = %2
  tail call void @llvm.memset.p0.i64(ptr nonnull align 1 %3, i8 0, i64 %1, i1 false)
  br label %5

5:                                                ; preds = %4, %2
  ret ptr %3
}